; Function Attrs: mustprogress uwtable
define void @_ZN2cv9GCompiled4Priv19prepareForNewStreamEv(ptr noundef nonnull readonly align 8 captures(none) dereferenceable(56) %0) local_unnamed_addr #3 align 2 personality ptr @__gxx_personality_v0 {
  %2 = alloca %"class.std::__cxx11::basic_string", align 8
  %3 = alloca %"class.std::allocator.23", align 1
  %4 = getelementptr inbounds nuw i8, ptr %0, i64 48
  %5 = load ptr, ptr %4, align 8, !tbaa !3
  %.not = icmp eq ptr %5, null
  br i1 %.not, label %6, label %16

6:                                                ; preds = %1
  call void @llvm.lifetime.start.p0(i64 32, ptr nonnull %2) #25
  call void @llvm.lifetime.start.p0(i64 1, ptr nonnull %3) #25
  call void @_ZNSt7__cxx1112basic_stringIcSt11char_traitsIcESaIcEEC2EPKcRKS3_(ptr noundef nonnull align 8 dereferenceable(32) %2, ptr noundef nonnull @.str.1, ptr noundef nonnull align 1 dereferenceable(1) %3)
  invoke void @_ZN2cv5errorEiRKNSt7__cxx1112basic_stringIcSt11char_traitsIcESaIcEEEPKcS9_i(i32 noundef -215, ptr noundef nonnull align 8 dereferenceable(32) %2, ptr noundef nonnull @__func__._ZN2cv9GCompiled4Priv19prepareForNewStreamEv, ptr noundef nonnull @.str.2, i32 noundef 83) #28
          to label %7 unwind label %8

7:                                                ; preds = %6
  unreachable

8:                                                ; preds = %6
  %9 = landingpad { ptr, i32 }
          cleanup
  %10 = load ptr, ptr %2, align 8, !tbaa !26
  %11 = getelementptr inbounds nuw i8, ptr %2, i64 16
  %12 = icmp eq ptr %10, %11
  br i1 %12, label %_ZNKSt7__cxx1112basic_stringIcSt11char_traitsIcESaIcEE11_M_is_localEv.exit.thread.i.i, label %_ZNKSt7__cxx1112basic_stringIcSt11char_traitsIcESaIcEE11_M_is_localEv.exit.i.i

_ZNKSt7__cxx1112basic_stringIcSt11char_traitsIcESaIcEE11_M_is_localEv.exit.thread.i.i: ; preds = %8
  %13 = getelementptr inbounds nuw i8, ptr %2, i64 8
  %14 = load i64, ptr %13, align 8, !tbaa !30
  %15 = icmp ult i64 %14, 16
  call void @llvm.assume(i1 %15)
  br label %_ZNSt7__cxx1112basic_stringIcSt11char_traitsIcESaIcEED2Ev.exit

_ZNKSt7__cxx1112basic_stringIcSt11char_traitsIcESaIcEE11_M_is_localEv.exit.i.i: ; preds = %8
  call void @_ZdlPv(ptr noundef %10) #27
  br label %_ZNSt7__cxx1112basic_stringIcSt11char_traitsIcESaIcEED2Ev.exit

_ZNSt7__cxx1112basic_stringIcSt11char_traitsIcESaIcEED2Ev.exit: ; preds = %_ZNKSt7__cxx1112basic_stringIcSt11char_traitsIcESaIcEE11_M_is_localEv.exit.i.i, %_ZNKSt7__cxx1112basic_stringIcSt11char_traitsIcESaIcEE11_M_is_localEv.exit.thread.i.i
  call void @llvm.lifetime.end.p0(i64 1, ptr nonnull %3) #25
  call void @llvm.lifetime.end.p0(i64 32, ptr nonnull %2) #25
  resume { ptr, i32 } %9

16:                                               ; preds = %1
  %17 = load ptr, ptr %5, align 8, !tbaa !8
  %18 = getelementptr inbounds nuw i8, ptr %17, i64 40
  %19 = load ptr, ptr %18, align 8
  tail call void %19(ptr noundef nonnull align 8 dereferenceable(304) %5)
  ret void
}